ccopy_reg
_reconstructor
p0
(c__main__
Vocabulary
p1
c__builtin__
object
p2
Ntp3
Rp4
(dp5
S'idx2word'
p6
(dp7
I0
S'<pad>'
p8
sI1
S'<start>'
p9
sI2
S'<end>'
p10
sI3
S'<unk>'
p11
sI4
Vall
p12
sI5
Vmanaged
p13
sI6
Vunpaused
p14
sI7
Vsubstain
p15
sI8
V'lets
p16
sI9
Vyellow
p17
sI10
Vfour
p18
sI11
Vgo
p19
sI12
Vfollow
p20
sI13
Vrow
p21
sI14
V'next
p22
sI15
Vhurry
p23
sI16
Vbuddy
p24
sI17
Vzone
p25
sI18
Vlining
p26
sI19
Vsend
p27
sI20
Vprocced
p28
sI21
Vto
p29
sI22
Vfinally
p30
sI23
Vzonw
p31
sI24
Vth
p32
sI25
Vsorry
p33
sI26
V'needed
p34
sI27
Vta
p35
sI28
V'pune
p36
sI29
V'weekend
p37
sI30
Vtakes
p38
sI31
Vsitting
p39
sI32
Vvery
p40
sI33
V'now
p41
sI34
Vrise
p42
sI35
Vfloated
p43
sI36
Vdecide
p44
sI37
Vfall
p45
sI38
V'went
p46
sI39
V'moab
p47
sI40
V'hop
p48
sI41
Vlook
p49
sI42
V'moved
p50
sI43
Vlevel
p51
sI44
Vwooden
p52
sI45
Vdie
p53
sI46
Vbutton
p54
sI47
Vmeand
p55
sI48
Vcorrect
p56
sI49
Vtry
p57
sI50
Vtunnel
p58
sI51
Vadjust
p59
sI52
Vhighway
p60
sI53
Vavoiding
p61
sI54
Vquick
p62
sI55
Vmovie
p63
sI56
Vheading
p64
sI57
Vrach
p65
sI58
V'cxcb
p66
sI59
V'again
p67
sI60
Vslower
p68
sI61
V'please
p69
sI62
Vcore
p70
sI63
Vme.
p71
sI64
Vpast
p72
sI65
Vsecond
p73
sI66
Vstreet
p74
sI67
Vtraveling
p75
sI68
Vpass
p76
sI69
V7th
p77
sI70
Vfurther
p78
sI71
Vtonext
p79
sI72
Vblue
p80
sI73
Vn't
p81
sI74
Vwhat
p82
sI75
Vanyways
p83
sI76
V'walk
p84
sI77
Vgiving
p85
sI78
V'portrait
p86
sI79
Vsection
p87
sI80
Vlead
p88
sI81
Vnear
p89
sI82
Vaccess
p90
sI83
Vwaiting
p91
sI84
Vgoes
p92
sI85
Vsideways
p93
sI86
Vnew
p94
sI87
Vfalling
p95
sI88
Vupward
p96
sI89
V'hi
p97
sI90
Vmovement
p98
sI91
V'finally
p99
sI92
V'hopefully
p100
sI93
V'jump
p101
sI94
Vchose
p102
sI95
Vleg
p103
sI96
Vplacing
p104
sI97
Vhere
p105
sI98
Vwater
p106
sI99
V'cfgu
p107
sI100
V'dfh
p108
sI101
V'pop
p109
sI102
Vmeet
p110
sI103
Vpath
p111
sI104
Vsafer
p112
sI105
Vappears
p113
sI106
Vwait
p114
sI107
Vgreat
p115
sI108
V'most
p116
sI109
V'suit
p117
sI110
Vahead
p118
sI111
V'because
p119
sI112
Vallows
p120
sI113
Vapproaches
p121
sI114
Vleaving
p122
sI115
Vamount
p123
sI116
V'straight
p124
sI117
Vwithin
p125
sI118
Vaction
p126
sI119
Vclimb
p127
sI120
V'jumped
p128
sI121
Vmakes
p129
sI122
Vexited
p130
sI123
Vsticking
p131
sI124
Vappropriately
p132
sI125
V'down
p133
sI126
Vforward.
p134
sI127
Vuseful
p135
sI128
Vsecure
p136
sI129
Vextra
p137
sI130
Vpossitioned
p138
sI131
Vwin
p139
sI132
Vtransit
p140
sI133
Vpause
p141
sI134
Vforwar
p142
sI135
Vlog.
p143
sI136
Vtell
p144
sI137
V1st
p145
sI138
Vactions
p146
sI139
Vstanding
p147
sI140
Vfrom
p148
sI141
Vproceed
p149
sI142
Vwould
p150
sI143
Vfailed
p151
sI144
Vdestination
p152
sI145
Vtwo
p153
sI146
Vfrog
p154
sI147
Vnext
p155
sI148
Vfew
p156
sI149
Vwood
p157
sI150
Vcall
p158
sI151
Vtherefore
p159
sI152
Vtypo
p160
sI153
Vvehicle
p161
sI154
Vfaster.
p162
sI155
Vsurvive
p163
sI156
Vmeans
p164
sI157
Vanalysing
p165
sI158
Vuntil
p166
sI159
Vmore
p167
sI160
V'nice
p168
sI161
V``
p169
sI162
Vvehile
p170
sI163
V'who
p171
sI164
Vstarted
p172
sI165
Vinitial
p173
sI166
Vfast-moving
p174
sI167
Vsite
p175
sI168
Vtrain
p176
sI169
Vfar
p177
sI170
Valigned
p178
sI171
Vblocking
p179
sI172
Vcarried
p180
sI173
Vme
p181
sI174
Vpaused
p182
sI175
V'cc
p183
sI176
Vendpoint
p184
sI177
V'speed
p185
sI178
Vthis
p186
sI179
Vcar
p187
sI180
Vride
p188
sI181
Vwork
p189
sI182
Vremain
p190
sI183
Vanywhere
p191
sI184
Vcrossed
p192
sI185
Vcan
p193
sI186
Vbelieved
p194
sI187
Vmaking
p195
sI188
Varrive
p196
sI189
Vmy
p197
sI190
Vroute
p198
sI191
Vnearest
p199
sI192
V'see
p200
sI193
Vfigure
p201
sI194
Vgive
p202
sI195
Vprocess
p203
sI196
V'xdrgb
p204
sI197
V'slighty
p205
sI198
Vconfused
p206
sI199
V'woke
p207
sI200
Vpushed
p208
sI201
Vperformed
p209
sI202
Vwant
p210
sI203
Vallowed
p211
sI204
Vgetin
p212
sI205
Vtimes
p213
sI206
Vlongest
p214
sI207
V!
p215
sI208
Vend
p216
sI209
Vgoal
p217
sI210
Vdid'nt
p218
sI211
Vrather
p219
sI212
V'move
p220
sI213
Vtravel
p221
sI214
Vwatching
p222
sI215
Vstayed
p223
sI216
V1
p224
sI217
Vhow
p225
sI218
V'scooted
p226
sI219
Vhop
p227
sI220
Vspeeding
p228
sI221
V'jumpped
p229
sI222
Vif
p230
sI223
Vpathway
p231
sI224
Vstand
p232
sI225
Varound.
p233
sI226
Vuntill
p234
sI227
Vokay
p235
sI228
Vtried
p236
sI229
Vmay
p237
sI230
Vafter
p238
sI231
Vspot
p239
sI232
V'suddenly
p240
sI233
V3rd
p241
sI234
Vwrong
p242
sI235
Vjumping
p243
sI236
Vtraffic.
p244
sI237
Vcoming
p245
sI238
Vdifferentlyin
p246
sI239
Veighth
p247
sI240
Va
p248
sI241
Vspeeds
p249
sI242
Vrealized
p250
sI243
Vdrop
p251
sI244
Vattempt
p252
sI245
Vthird
p253
sI246
Vwhenever
p254
sI247
V6th
p255
sI248
Vlines
p256
sI249
Vslighty
p257
sI250
Vgap
p258
sI251
Vtruck
p259
sI252
Vscoot
p260
sI253
Vallow
p261
sI254
Venter
p262
sI255
V'alarm
p263
sI256
Vnect
p264
sI257
Vlined
p265
sI258
Vorder
p266
sI259
Vpreparing
p267
sI260
Vws
p268
sI261
Vhelp
p269
sI262
Vrght
p270
sI263
Vover
p271
sI264
Vmove
p272
sI265
Vsoon
p273
sI266
Vended
p274
sI267
Visnt
p275
sI268
Vthrough
p276
sI269
Vlooks
p277
sI270
Vcold
p278
sI271
Vstill
p279
sI272
Vits
p280
sI273
Vbefore
p281
sI274
Vperfect
p282
sI275
Vmessed
p283
sI276
Vrapidly
p284
sI277
Vdied.
p285
sI278
Vtill
p286
sI279
Vexact
p287
sI280
V'top
p288
sI281
Vactually
p289
sI282
V'red
p290
sI283
Vplatform
p291
sI284
Vwindow
p292
sI285
Vbypass
p293
sI286
V'going
p294
sI287
Vbye
p295
sI288
Vmight
p296
sI289
Vlanding.
p297
sI290
Vround
p298
sI291
Vhappened
p299
sI292
Vit.
p300
sI293
Vthen
p301
sI294
Vthem
p302
sI295
Vgood
p303
sI296
Vgreater
p304
sI297
V3
p305
sI298
Vfood
p306
sI299
Vsafe
p307
sI300
V'quickly
p308
sI301
Vthey
p309
sI302
Vhalf
p310
sI303
Vfront
p311
sI304
Vnow
p312
sI305
Valign
p313
sI306
Vinstructions
p314
sI307
Veasily
p315
sI308
V'food
p316
sI309
Vdesignation
p317
sI310
V'movee
p318
sI311
Vdebating
p319
sI312
Vby.
p320
sI313
Vdid
p321
sI314
V'start
p322
sI315
Varrow
p323
sI316
Veach
p324
sI317
Vcrossing
p325
sI318
Vfound
p326
sI319
Vwent
p327
sI320
Vside
p328
sI321
V'reach
p329
sI322
Vmean
p330
sI323
Vsuccessful
p331
sI324
V'right
p332
sI325
Vjumoing
p333
sI326
Vlogs
p334
sI327
Vpositioned
p335
sI328
Vlan
p336
sI329
Vused
p337
sI330
Vwento
p338
sI331
Vfinish
p339
sI332
Vcar.
p340
sI333
Vforgot
p341
sI334
Vhappen
p342
sI335
Vavoided
p343
sI336
Vout
p344
sI337
Vlarge
p345
sI338
Vflower
p346
sI339
Vcontinuing
p347
sI340
Vmissed
p348
sI341
V'
p349
sI342
Vspace
p350
sI343
Vmiss
p351
sI344
Vsince
p352
sI345
Vsemi
p353
sI346
Vlooking
p354
sI347
Vsafety
p355
sI348
V'two
p356
sI349
Vgot
p357
sI350
V'third
p358
sI351
Vsliding
p359
sI352
Vred
p360
sI353
Vstrategies
p361
sI354
Vmaneuver
p362
sI355
V'was
p363
sI356
Vearlier
p364
sI357
Vdesgination
p365
sI358
Vcars
p366
sI359
Vseventh
p367
sI360
V'almost
p368
sI361
Vfree
p369
sI362
Vquite
p370
sI363
Vreason
p371
sI364
Vbase
p372
sI365
Vstruggle
p373
sI366
Vput
p374
sI367
Vright.i
p375
sI368
Vwanted
p376
sI369
Vcard
p377
sI370
Vadvance
p378
sI371
V'nude
p379
sI372
Vdefinitely
p380
sI373
V'when
p381
sI374
Vlock
p382
sI375
Vcould
p383
sI376
Vtransition
p384
sI377
V'waited
p385
sI378
Vrunning
p386
sI379
Vkeep
p387
sI380
Vthing
p388
sI381
V4th
p389
sI382
Vplace
p390
sI383
Vview
p391
sI384
Vonto
p392
sI385
Vthink
p393
sI386
Vwaited
p394
sI387
Vfirst
p395
sI388
Valready
p396
sI389
Vforwards
p397
sI390
V'et
p398
sI391
Vfeel
p399
sI392
Vtwice
p400
sI393
V'road
p401
sI394
Vtorquise
p402
sI395
Vone
p403
sI396
Vpop
p404
sI397
Vquicker
p405
sI398
Vdone
p406
sI399
Vlong
p407
sI400
Vanother
p408
sI401
V'sofa
p409
sI402
Vcarry
p410
sI403
Vreached
p411
sI404
Vopen
p412
sI405
Vsuck
p413
sI406
Vpasses
p414
sI407
Vlittle
p415
sI408
Vtheir
p416
sI409
Vtop
p417
sI410
Vneeded
p418
sI411
V'ijumped
p419
sI412
Vrates
p420
sI413
Vtoo
p421
sI414
Vpassed
p422
sI415
Vperfectly
p423
sI416
Vreally
p424
sI417
Vfinal
p425
sI418
Vgives
p426
sI419
Vlot
p427
sI420
Vthat
p428
sI421
Vapproching
p429
sI422
Vtook
p430
sI423
Vimmediate
p431
sI424
Vpart
p432
sI425
V'finished
p433
sI426
Vshortly
p434
sI427
Vbelieve
p435
sI428
Vthan
p436
sI429
Vjump
p437
sI430
Vkind
p438
sI431
Vtarget
p439
sI432
V'finished\u005cn
p440
sI433
Vgotten
p441
sI434
Vsdo
p442
sI435
Vtold
p443
sI436
V'slightly
p444
sI437
V'waiting
p445
sI438
Vdidn
p446
sI439
Vsupposed
p447
sI440
Vwere
p448
sI441
Vroght
p449
sI442
Vtoward
p450
sI443
Vrisky
p451
sI444
Vand
p452
sI445
Vbridge
p453
sI446
Vran
p454
sI447
Vnavigate
p455
sI448
Vmind
p456
sI449
Vdanger
p457
sI450
V'just
p458
sI451
V'looks
p459
sI452
Vhave
p460
sI453
Vneed
p461
sI454
Vseen
p462
sI455
Vconcentration
p463
sI456
V'to
p464
sI457
Vsaw
p465
sI458
Vany
p466
sI459
V'alas
p467
sI460
Vefficient
p468
sI461
Vable
p469
sI462
V'save
p470
sI463
Vshocked
p471
sI464
Valso
p472
sI465
Videal
p473
sI466
Vwithout
p474
sI467
Vtake
p475
sI468
Vwhich
p476
sI469
V'd
p477
sI470
Vso
p478
sI471
V'vogue
p479
sI472
Vgreatest
p480
sI473
Veven
p481
sI474
Vbegin
p482
sI475
Vsure
p483
sI476
Vbeyond
p484
sI477
Vthough
p485
sI478
Vtrack
p486
sI479
Vobject
p487
sI480
Vreach
p488
sI481
Vmost
p489
sI482
Vplan
p490
sI483
Vplenty
p491
sI484
Vtract
p492
sI485
Vnothing
p493
sI486
Vcleared
p494
sI487
Vextremely
p495
sI488
Vwhy
p496
sI489
Vtunnel.
p497
sI490
Vleftsame
p498
sI491
Vclear
p499
sI492
Vlater
p500
sI493
Vflow
p501
sI494
Vdrive
p502
sI495
Vdrifts
p503
sI496
Vlooked
p504
sI497
Vpoints
p505
sI498
Vpattern
p506
sI499
Vcame
p507
sI500
Vshot
p508
sI501
V'reached
p509
sI502
V'as
p510
sI503
Vending
p511
sI504
Vlof\u005cn
p512
sI505
Vbring
p513
sI506
V'ok
p514
sI507
Vspaces
p515
sI508
V'last
p516
sI509
Vcarefully
p517
sI510
Vhopped
p518
sI511
Vlonger
p519
sI512
Vfind
p520
sI513
Vfifth
p521
sI514
Vrealizing
p522
sI515
Vpannel
p523
sI516
Vcurrent
p524
sI517
Vslow
p525
sI518
Vnervous
p526
sI519
Vbehind
p527
sI520
Vshould
p528
sI521
Vfoward
p529
sI522
Vonly
p530
sI523
Vgoing
p531
sI524
Vpretty
p532
sI525
Vriding
p533
sI526
Vtruck.
p534
sI527
V'no
p535
sI528
Vhope
p536
sI529
V'bvb
p537
sI530
Vdo
p538
sI531
Vcomple
p539
sI532
Vhis
p540
sI533
Vhit
p541
sI534
Vabove
p542
sI535
Vget
p543
sI536
V'jumping
p544
sI537
Vbetween
p545
sI538
Vwatch
p546
sI539
Vspace.
p547
sI540
Vcoast
p548
sI541
Vbarrier
p549
sI542
Vpass.
p550
sI543
Vfastest
p551
sI544
Vprogress
p552
sI545
Vtiming
p553
sI546
V2
p554
sI547
Vrespectively
p555
sI548
Vds
p556
sI549
V'very
p557
sI550
Vareas
p558
sI551
Vfollowing
p559
sI552
Vbar
p560
sI553
Vtrucks
p561
sI554
Vtunel
p562
sI555
Vbearings
p563
sI556
Vmedian
p564
sI557
Vremove
p565
sI558
V'coast
p566
sI559
Vbad
p567
sI560
Vstuff
p568
sI561
Vshe
p569
sI562
Vriver
p570
sI563
Vwhere
p571
sI564
Vapproaching
p572
sI565
Vavailable
p573
sI566
V'movie
p574
sI567
Vdesigination
p575
sI568
V'override
p576
sI569
Vachieved
p577
sI570
Vnotice
p578
sI571
Vdetection
p579
sI572
Vsee
p580
sI573
Vdecided
p581
sI574
Vare
p582
sI575
Vclose
p583
sI576
Vbest
p584
sI577
Vcreating
p585
sI578
Vcloser
p586
sI579
Vknowing
p587
sI580
Vattempting
p588
sI581
Vjumped
p589
sI582
Vaway
p590
sI583
Vcurrently
p591
sI584
Vreachablility
p592
sI585
Vpased
p593
sI586
Vacross.
p594
sI587
Venough
p595
sI588
Vwon
p596
sI589
Vhopefully
p597
sI590
Vprobably
p598
sI591
Vapproach
p599
sI592
Vacross
p600
sI593
V'xd
p601
sI594
Vwe
p602
sI595
Vability
p603
sI596
Vome
p604
sI597
Vopening
p605
sI598
Vwo
p606
sI599
Vscreen
p607
sI600
Vsynchronizing
p608
sI601
Vjob
p609
sI602
V'vodafone
p610
sI603
V'watch
p611
sI604
V'and
p612
sI605
V'its
p613
sI606
Vwth
p614
sI607
Vcome
p615
sI608
V'still
p616
sI609
Vboth
p617
sI610
Vhits
p618
sI611
Vfigured
p619
sI612
Vlast
p620
sI613
Vrepeating
p621
sI614
V'once
p622
sI615
Vtaking
p623
sI616
Vbarely
p624
sI617
V'boat
p625
sI618
Vaccording
p626
sI619
V'currently
p627
sI620
V'drfy
p628
sI621
V'seen
p629
sI622
V'mohawk
p630
sI623
Vlet
p631
sI624
Vpassing
p632
sI625
Vsafely
p633
sI626
V'front
p634
sI627
Votherwise
p635
sI628
Vkey
p636
sI629
Vheaded
p637
sI630
Vwall
p638
sI631
Vhad
p639
sI632
Vca
p640
sI633
V'fighter
p641
sI634
V2nd
p642
sI635
V'phone
p643
sI636
Vsimply
p644
sI637
Vmaximize
p645
sI638
V'since
p646
sI639
Valong
p647
sI640
Vpanel
p648
sI641
V'2
p649
sI642
Vbetter
p650
sI643
Vproceeded
p651
sI644
V'look
p652
sI645
Vimportant
p653
sI646
Vdue
p654
sI647
Vbeen
p655
sI648
Vquickly
p656
sI649
Vhitting
p657
sI650
V'woodland
p658
sI651
Vmuch
p659
sI652
Vslowly
p660
sI653
Ventered
p661
sI654
Vwaste
p662
sI655
V'great
p663
sI656
Vempty
p664
sI657
Vthrew
p665
sI658
Vwebsite
p666
sI659
Vresting
p667
sI660
Vdirection
p668
sI661
Vmoved
p669
sI662
V'moving
p670
sI663
Velse
p671
sI664
Vfinished
p672
sI665
Vobserve
p673
sI666
Vlives
p674
sI667
V'after
p675
sI668
Vcatch
p676
sI669
Vintial
p677
sI670
Van
p678
sI671
Vlane.
p679
sI672
Vjklkl\u005cn
p680
sI673
Vcase
p681
sI674
Vmyself
p682
sI675
Vsave
p683
sI676
Vlanding
p684
sI677
V'well
p685
sI678
V'safe
p686
sI679
Vstraight
p687
sI680
Veasier
p688
sI681
Vwill
p689
sI682
Vpace
p690
sI683
Vwhile
p691
sI684
Vsmack-dab
p692
sI685
Vpressed
p693
sI686
V'there
p694
sI687
Vmistake
p695
sI688
Vlisten
p696
sI689
Vtwards
p697
sI690
Vhoping
p698
sI691
Veventually
p699
sI692
Valmost
p700
sI693
Vis
p701
sI694
V5th
p702
sI695
Vthus
p703
sI696
Vit
p704
sI697
V'first
p705
sI698
Vii
p706
sI699
Vmiddle
p707
sI700
Vpressing
p708
sI701
Vim
p709
sI702
Vin
p710
sI703
Vready
p711
sI704
Vobsticle
p712
sI705
Vmovements
p713
sI706
Vdifferent
p714
sI707
V'moon
p715
sI708
Vanymore
p716
sI709
Vgrant
p717
sI710
Vthings
p718
sI711
Vmake
p719
sI712
Vcross
p720
sI713
Vsame
p721
sI714
V'mood
p722
sI715
Vbeside
p723
sI716
Vpad
p724
sI717
Vslower-moving
p725
sI718
Vrelatively
p726
sI719
Vdifficult
p727
sI720
Varrives
p728
sI721
Vcoming.\u005cn
p729
sI722
V'then
p730
sI723
V'dz
p731
sI724
V'bhoot
p732
sI725
Vhand
p733
sI726
Vcoaches
p734
sI727
Vmoment
p735
sI728
Vmoving
p736
sI729
V'okay
p737
sI730
Vopportunity
p738
sI731
V'slowly
p739
sI732
Vtask
p740
sI733
Voff
p741
sI734
Vcenter
p742
sI735
Vi
p743
sI736
Vdisappears
p744
sI737
Vpreceeding
p745
sI738
Vvacant
p746
sI739
Vwell
p747
sI740
Vkept
p748
sI741
Vthought
p749
sI742
V'my
p750
sI743
Vedge
p751
sI744
Vcomes
p752
sI745
Vclears
p753
sI746
Vposition
p754
sI747
Vthe
p755
sI748
V'simply
p756
sI749
Vleft
p757
sI750
Vjust
p758
sI751
Vbeing
p759
sI752
Vaccurate
p760
sI753
Vobtain
p761
sI754
Vrest
p762
sI755
Vnot
p763
sI756
Vkill
p764
sI757
Vfarther
p765
sI758
V'hopped
p766
sI759
Vefrogger
p767
sI760
Vspeed
p768
sI761
Vyet
p769
sI762
Vprevious
p770
sI763
Vletting
p771
sI764
V'trying
p772
sI765
V'turquoise
p773
sI766
Vsometimes
p774
sI767
V'changed
p775
sI768
V'climb
p776
sI769
Vpoint
p777
sI770
Vseems
p778
sI771
Vcuz
p779
sI772
Vctach
p780
sI773
Vkilled
p781
sI774
Vappeared
p782
sI775
Vadd
p783
sI776
Vanshould
p784
sI777
Vlocation
p785
sI778
Veasy
p786
sI779
V'take
p787
sI780
Vhas
p788
sI781
Vsurprised
p789
sI782
Vreal
p790
sI783
V...
p791
sI784
Vturquoise
p792
sI785
Varound
p793
sI786
Vample
p794
sI787
Vchecking
p795
sI788
Vcouple
p796
sI789
Vpossible
p797
sI790
Vgame
p798
sI791
Vtraffic
p799
sI792
Vknow
p800
sI793
Vpress
p801
sI794
Vusing
p802
sI795
Vbit
p803
sI796
Vaiming
p804
sI797
Vadvanced
p805
sI798
Vlike
p806
sI799
Vlost
p807
sI800
Vsafest
p808
sI801
Voncoming
p809
sI802
V've
p810
sI803
Vcontinue
p811
sI804
Vsteps
p812
sI805
Vt
p813
sI806
Vlose
p814
sI807
Vcompletely
p815
sI808
Vdownward
p816
sI809
Vnice
p817
sI810
Vhazards
p818
sI811
Vright
p819
sI812
V'frog
p820
sI813
Vsuccessfully
p821
sI814
Vsome
p822
sI815
Vback
p823
sI816
Valive
p824
sI817
Vdriving
p825
sI818
Vtowards
p826
sI819
Vsight
p827
sI820
Vescape
p828
sI821
Vhome
p829
sI822
Vtransport
p830
sI823
Vhitbox
p831
sI824
Vproceeding
p832
sI825
Vfor
p833
sI826
Vfourth
p834
sI827
Vavoid
p835
sI828
Vopposite
p836
sI829
V/
p837
sI830
Vbackward
p838
sI831
Veverything
p839
sI832
Vleap
p840
sI833
Vdoes
p841
sI834
Vforwaed
p842
sI835
Vleftmost
p843
sI836
Vpatiently
p844
sI837
Vtoright
p845
sI838
Vbe
p846
sI839
Vrun
p847
sI840
Vreasonable
p848
sI841
Vreaching
p849
sI842
Vseconds
p850
sI843
Vsixth
p851
sI844
Vjumps
p852
sI845
Vplatform.
p853
sI846
V'this
p854
sI847
Vneccessary
p855
sI848
Vstep
p856
sI849
Vnowhere
p857
sI850
Vaccident
p858
sI851
Vby
p859
sI852
Vstage
p860
sI853
V'the
p861
sI854
Von
p862
sI855
Vabout
p863
sI856
V'it
p864
sI857
Vcentral
p865
sI858
Vworking
p866
sI859
Vgetting
p867
sI860
Vof
p868
sI861
V'e
p869
sI862
Vo
p870
sI863
V'almosed
p871
sI864
V'if
p872
sI865
Vrange
p873
sI866
Vfell
p874
sI867
Vensure
p875
sI868
Vright.that
p876
sI869
V'im
p877
sI870
Vot
p878
sI871
Vslightly
p879
sI872
Vor
p880
sI873
Vroad
p881
sI874
Vmatch
p882
sI875
Vseeing
p883
sI876
Vsidebecause
p884
sI877
V'cgh
p885
sI878
Vrethinking
p886
sI879
Vgoal.
p887
sI880
Vinto
p888
sI881
Vfloat
p889
sI882
Vobtaining
p890
sI883
Vthree
p891
sI884
Vdown
p892
sI885
Vthankful
p893
sI886
Vappropriate
p894
sI887
Vbecause
p895
sI888
V'taken
p896
sI889
Vstrip
p897
sI890
Vcouldnt
p898
sI891
V.
p899
sI892
V'godown
p900
sI893
V'prem
p901
sI894
Vsong
p902
sI895
Vtoo.lane
p903
sI896
Vlog
p904
sI897
Vprepare
p905
sI898
Varea
p906
sI899
Vtransfer
p907
sI900
Vlagged
p908
sI901
Vthere
p909
sI902
V'uo
p910
sI903
Vfast
p911
sI904
Vnoticed
p912
sI905
Vstart
p913
sI906
V'up
p914
sI907
Vdied
p915
sI908
Vway
p916
sI909
Vforward
p917
sI910
V'another
p918
sI911
Vwas
p919
sI912
V'one
p920
sI913
Vcomplete
p921
sI914
Vform
p922
sI915
V'good
p923
sI916
Vbut
p924
sI917
Vtaken
p925
sI918
Vproperly
p926
sI919
Vleftside
p927
sI920
Vhopes
p928
sI921
Vline
p929
sI922
Vtrying
p930
sI923
Vwith
p931
sI924
V'made
p932
sI925
Vhe
p933
sI926
Vmade
p934
sI927
Vwise
p935
sI928
Vpond
p936
sI929
Vwish
p937
sI930
Vinside
p938
sI931
Vup
p939
sI932
Vachieving
p940
sI933
Vbelow
p941
sI934
V're
p942
sI935
Vroll-ups
p943
sI936
Vproblem
p944
sI937
V'got
p945
sI938
V'keep
p946
sI939
Vpositioning
p947
sI940
Vdistance
p948
sI941
Vside.
p949
sI942
Vgone
p950
sI943
Vvehicles
p951
sI944
V'ran
p952
sI945
Vdirectly
p953
sI946
Vwhatever
p954
sI947
Vcombining
p955
sI948
Vam
p956
sI949
Vlife
p957
sI950
V'log
p958
sI951
V''
p959
sI952
Vas
p960
sI953
Vat
p961
sI954
V'having
p962
sI955
V'go
p963
sI956
Vmoves
p964
sI957
Vcheck
p965
sI958
Vagain
p966
sI959
Vmaybe
p967
sI960
V'll
p968
sI961
Vdying
p969
sI962
Vno
p970
sI963
Vwhen
p971
sI964
Vslow-moving
p972
sI965
Vpreventing
p973
sI966
Vfield
p974
sI967
Vother
p975
sI968
V'left
p976
sI969
Vledge
p977
sI970
Vyou
p978
sI971
V'zzz
p979
sI972
V'super
p980
sI973
Vfrogger
p981
sI974
V'u
p982
sI975
Vrepeat
p983
sI976
V's
p984
sI977
V'r
p985
sI978
Vmove.
p986
sI979
Vfelt
p987
sI980
Vdrift
p988
sI981
V'y
p989
sI982
Vstay
p990
sI983
Valright
p991
sI984
Vchance
p992
sI985
Vjourney
p993
sI986
V'c
p994
sI987
Vallowing
p995
sI988
V'a
p996
sI989
Vquiclkly
p997
sI990
V'm
p998
sI991
V'l
p999
sI992
V'k
p1000
sI993
V'i
p1001
sI994
V'h
p1002
sI995
Vtricky
p1003
sI996
Vlane
p1004
sI997
Vland
p1005
sI998
Veog
p1006
sI999
Vfaster
p1007
sI1000
Vrequired
p1008
sI1001
Vhaving
p1009
sI1002
Vlift
p1010
sI1003
Vtorquoise
p1011
sI1004
Vtime
p1012
sI1005
Vpush
p1013
sI1006
Vunderstand
p1014
sI1007
Vlineup
p1015
sI1008
Vstarting
p1016
sI1009
Vdecision
p1017
sI1010
Vonce
p1018
ssS'word2idx'
p1019
(dp1020
g12
I4
sg13
I5
sg14
I6
sg15
I7
sg16
I8
sg17
I9
sg18
I10
sg19
I11
sg20
I12
sg1007
I999
sg21
I13
sg178
I170
sg24
I16
sg25
I17
sg26
I18
sg27
I19
sg28
I20
sg29
I21
sg30
I22
sg31
I23
sg32
I24
sg589
I581
sg33
I25
sg34
I26
sg35
I27
sg36
I28
sg39
I31
sg40
I32
sg41
I33
sg42
I34
sg43
I35
sg44
I36
sg45
I37
sg47
I39
sg48
I40
sg924
I916
sg316
I308
sg51
I43
sg52
I44
sg53
I45
sg54
I46
sg359
I351
sg57
I49
sg58
I50
sg59
I51
sg360
I352
sg61
I53
sg62
I54
sg64
I56
sg65
I57
sg66
I58
sg525
I517
sg67
I59
sg68
I60
sg516
I508
sg9
I1
sg71
I63
sg72
I64
sg73
I65
sg74
I66
sg75
I67
sg76
I68
sg77
I69
sg78
I70
sg518
I510
sg80
I72
sg689
I681
sg82
I74
sg84
I76
sg85
I77
sg87
I79
sg691
I683
sg288
I280
sg91
I83
sg993
I985
sg92
I84
sg366
I358
sg394
I386
sg94
I86
sg95
I87
sg97
I89
sg98
I90
sg99
I91
sg100
I92
sg102
I94
sg103
I95
sg555
I547
sg105
I97
sg106
I98
sg107
I99
sg108
I100
sg109
I101
sg110
I102
sg111
I103
sg112
I104
sg113
I105
sg114
I106
sg115
I107
sg116
I108
sg117
I109
sg118
I110
sg524
I516
sg120
I112
sg371
I363
sg122
I114
sg123
I115
sg124
I116
sg126
I118
sg127
I119
sg128
I120
sg129
I121
sg130
I122
sg874
I866
sg131
I123
sg132
I124
sg133
I125
sg135
I127
sg136
I128
sg137
I129
sg138
I130
sg139
I131
sg140
I132
sg142
I134
sg374
I366
sg697
I689
sg145
I137
sg146
I138
sg147
I139
sg880
I872
sg148
I140
sg38
I30
sg150
I142
sg529
I521
sg152
I144
sg153
I145
sg154
I146
sg155
I147
sg156
I148
sg531
I523
sg158
I150
sg159
I151
sg160
I152
sg161
I153
sg925
I917
sg163
I155
sg648
I640
sg144
I136
sg167
I159
sg168
I160
sg169
I161
sg378
I370
sg172
I164
sg174
I166
sg929
I921
sg704
I696
sg176
I168
sg23
I15
sg179
I171
sg181
I173
sg182
I174
sg183
I175
sg184
I176
sg185
I177
sg186
I178
sg187
I179
sg188
I180
sg189
I181
sg535
I527
sg190
I182
sg191
I183
sg192
I184
sg193
I185
sg194
I186
sg195
I187
sg196
I188
sg197
I189
sg383
I375
sg777
I769
sg199
I191
sg200
I192
sg201
I193
sg202
I194
sg203
I195
sg382
I374
sg205
I197
sg206
I198
sg207
I199
sg208
I200
sg8
I0
sg209
I201
sg210
I202
sg211
I203
sg541
I533
sg213
I205
sg866
I858
sg215
I207
sg752
I744
sg216
I208
sg217
I209
sg218
I210
sg219
I211
sg220
I212
sg221
I213
sg222
I214
sg223
I215
sg224
I216
sg286
I278
sg226
I218
sg227
I219
sg228
I220
sg229
I221
sg244
I236
sg231
I223
sg876
I868
sg233
I225
sg234
I226
sg235
I227
sg236
I228
sg237
I229
sg238
I230
sg239
I231
sg714
I706
sg242
I234
sg243
I235
sg245
I237
sg246
I238
sg247
I239
sg248
I240
sg250
I242
sg878
I870
sg252
I244
sg253
I245
sg254
I246
sg255
I247
sg256
I248
sg807
I799
sg464
I456
sg259
I251
sg260
I252
sg261
I253
sg262
I254
sg263
I255
sg264
I256
sg265
I257
sg266
I258
sg214
I206
sg269
I261
sg883
I875
sg101
I93
sg272
I264
sg273
I265
sg274
I266
sg275
I267
sg396
I388
sg276
I268
sg277
I269
sg278
I270
sg279
I271
sg280
I272
sg281
I273
sg282
I274
sg283
I275
sg284
I276
sg285
I277
sg86
I78
sg287
I279
sg930
I922
sg289
I281
sg290
I282
sg291
I283
sg292
I284
sg293
I285
sg294
I286
sg295
I287
sg296
I288
sg297
I289
sg299
I291
sg300
I292
sg170
I162
sg302
I294
sg303
I295
sg304
I296
sg306
I298
sg307
I299
sg308
I300
sg921
I913
sg309
I301
sg310
I302
sg311
I303
sg312
I304
sg781
I773
sg314
I306
sg315
I307
sg50
I42
sg317
I309
sg251
I243
sg319
I311
sg320
I312
sg321
I313
sg962
I954
sg323
I315
sg324
I316
sg325
I317
sg326
I318
sg327
I319
sg328
I320
sg329
I321
sg96
I88
sg332
I324
sg333
I325
sg334
I326
sg909
I901
sg335
I327
sg336
I328
sg338
I330
sg337
I329
sg340
I332
sg341
I333
sg549
I541
sg342
I334
sg343
I335
sg344
I336
sg345
I337
sg859
I851
sg346
I338
sg348
I340
sg349
I341
sg350
I342
sg412
I404
sg437
I429
sg352
I344
sg354
I346
sg355
I347
sg356
I348
sg357
I349
sg543
I535
sg358
I350
sg56
I48
sg60
I52
sg361
I353
sg362
I354
sg363
I355
sg364
I356
sg365
I357
sg972
I964
sg93
I85
sg367
I359
sg415
I407
sg369
I361
sg370
I362
sg121
I113
sg372
I364
sg373
I365
sg143
I135
sg375
I367
sg376
I368
sg377
I369
sg171
I163
sg570
I562
sg381
I373
sg198
I190
sg384
I376
sg385
I377
sg735
I727
sg298
I290
sg388
I380
sg389
I381
sg390
I382
sg572
I564
sg392
I384
sg393
I385
sg249
I241
sg395
I387
sg173
I165
sg397
I389
sg398
I390
sg399
I391
sg910
I902
sg401
I393
sg402
I394
sg403
I395
sg322
I314
sg406
I398
sg911
I903
sg408
I400
sg409
I401
sg410
I402
sg411
I403
sg351
I343
sg413
I405
sg860
I852
sg414
I406
sg368
I360
sg418
I410
sg417
I409
sg416
I408
sg554
I546
sg420
I412
sg421
I413
sg422
I414
sg423
I415
sg425
I417
sg426
I418
sg916
I908
sg428
I420
sg429
I421
sg430
I422
sg431
I423
sg1008
I1000
sg432
I424
sg895
I887
sg1013
I1005
sg433
I425
sg741
I733
sg134
I126
sg436
I428
sg742
I734
sg379
I371
sg438
I430
sg204
I196
sV'finished\u005cn
p1021
I432
sg441
I433
sg988
I980
sg444
I436
sg445
I437
sg447
I439
sg448
I440
sg450
I442
sg449
I441
sg452
I444
sg453
I445
sg454
I446
sg455
I447
sg456
I448
sg458
I450
sg459
I451
sg460
I452
sg461
I453
sg462
I454
sg463
I455
sg465
I457
sg466
I458
sg726
I718
sg468
I460
sg469
I461
sg470
I462
sg471
I463
sg833
I825
sg472
I464
sg473
I465
sg751
I743
sg475
I467
sg476
I468
sg478
I470
sg479
I471
sg914
I906
sg481
I473
sg482
I474
sg483
I475
sg485
I477
sg486
I478
sg487
I479
sg488
I480
sg489
I481
sg490
I482
sg491
I483
sg492
I484
sg493
I485
sg1017
I1009
sg494
I486
sg495
I487
sg496
I488
sg965
I957
sg497
I489
sg498
I490
sg499
I491
sg500
I492
sg501
I493
sg502
I494
sg503
I495
sg504
I496
sg380
I372
sg506
I498
sg507
I499
sg508
I500
sg509
I501
sg510
I502
sg511
I503
sVlof\u005cn
p1022
I504
sg513
I505
sg515
I507
sg69
I61
sg517
I509
sg79
I71
sg520
I512
sg521
I513
sg719
I711
sg523
I515
sg90
I82
sg141
I133
sg953
I945
sg526
I518
sg527
I519
sg528
I520
sg151
I143
sg530
I522
sg157
I149
sg532
I524
sg533
I525
sg534
I526
sg271
I263
sg536
I528
sg537
I529
sg538
I530
sg539
I531
sg540
I532
sg212
I204
sg542
I534
sg164
I156
sg544
I536
sg597
I589
sg546
I538
sg547
I539
sg548
I540
sg55
I47
sg550
I542
sg934
I926
sg267
I259
sg598
I590
sg553
I545
sg933
I925
sg556
I548
sg557
I549
sg439
I431
sg559
I551
sg560
I552
sg561
I553
sg562
I554
sg563
I555
sg558
I550
sg564
I556
sg565
I557
sg400
I392
sg567
I559
sg568
I560
sg569
I561
sg699
I691
sg443
I435
sg571
I563
sg391
I383
sg587
I579
sg574
I566
sg575
I567
sg576
I568
sg577
I569
sg889
I881
sg602
I594
sg728
I720
sg579
I571
sg580
I572
sg581
I573
sg83
I75
sg583
I575
sg584
I576
sg603
I595
sg586
I578
sg588
I580
sg63
I55
sg590
I582
sg591
I583
sg592
I584
sg593
I585
sg1015
I1007
sg305
I297
sg596
I588
sg545
I537
sg552
I544
sg599
I591
sg600
I592
sg573
I565
sg578
I570
sg585
I577
sg604
I596
sg605
I597
sg606
I598
sg607
I599
sg955
I947
sg608
I600
sg609
I601
sg268
I260
sg611
I603
sg612
I604
sg613
I605
sg614
I606
sg615
I607
sg616
I608
sg617
I609
sg10
I2
sg619
I611
sg620
I612
sg621
I613
sg622
I614
sg623
I615
sg624
I616
sg625
I617
sg626
I618
sg627
I619
sg732
I724
sg610
I602
sg632
I624
sg451
I443
sg633
I625
sg634
I626
sg635
I627
sg636
I628
sg637
I629
sg638
I630
sg778
I770
sg640
I632
sg404
I396
sg642
I634
sg644
I636
sg645
I637
sg646
I638
sg318
I310
sg647
I639
sg844
I836
sg650
I642
sg651
I643
sg652
I644
sg654
I646
sg655
I647
sg656
I648
sg657
I649
sg658
I650
sg659
I651
sg660
I652
sg661
I653
sg662
I654
sg663
I655
sg664
I656
sg665
I657
sg666
I658
sg667
I659
sg668
I660
sg956
I948
sg670
I662
sg618
I610
sg258
I250
sg672
I664
sg673
I665
sg674
I666
sg675
I667
sg676
I668
sg677
I669
sg958
I950
sVjklkl\u005cn
p1023
I672
sg681
I673
sg682
I674
sg788
I780
sg46
I38
sg49
I41
sg313
I305
sg688
I680
sg81
I73
sg690
I682
sg89
I81
sg692
I684
sg693
I685
sg694
I686
sg695
I687
sg696
I688
sg629
I621
sg698
I690
sg301
I293
sg700
I692
sg701
I693
sg702
I694
sg703
I695
sg175
I167
sg705
I697
sg706
I698
sg707
I699
sg708
I700
sg709
I701
sg710
I702
sg711
I703
sg712
I704
sg551
I543
sg230
I222
sg240
I232
sg631
I623
sg715
I707
sg716
I708
sg717
I709
sg718
I710
sg522
I514
sg601
I593
sg720
I712
sg721
I713
sg722
I714
sg723
I715
sg724
I716
sg940
I932
sg725
I717
sg727
I719
sg339
I331
sVcoming.\u005cn
p1024
I721
sg730
I722
sg731
I723
sg733
I725
sg734
I726
sg386
I378
sg736
I728
sg737
I729
sg738
I730
sg387
I379
sg739
I731
sg740
I732
sg434
I426
sg149
I141
sg566
I558
sg743
I735
sg744
I736
sg745
I737
sg746
I738
sg747
I739
sg748
I740
sg800
I792
sg749
I741
sg750
I742
sg474
I466
sg480
I472
sg753
I745
sg754
I746
sg755
I747
sg756
I748
sg757
I749
sg758
I750
sg759
I751
sg971
I963
sg760
I752
sg761
I753
sg37
I29
sg763
I755
sg764
I756
sg765
I757
sg766
I758
sg762
I754
sg768
I760
sg769
I761
sg770
I762
sg771
I763
sg772
I764
sg773
I765
sg775
I767
sg776
I768
sg457
I449
sg639
I631
sg779
I771
sg780
I772
sg774
I766
sg782
I774
sg783
I775
sg975
I967
sg784
I776
sg785
I777
sg786
I778
sg787
I779
sg683
I675
sg789
I781
sg162
I154
sg791
I783
sg792
I784
sg793
I785
sg794
I786
sg795
I787
sg796
I788
sg797
I789
sg798
I790
sg799
I791
sg641
I633
sg801
I793
sg802
I794
sg803
I795
sg804
I796
sg805
I797
sg806
I798
sg967
I959
sg979
I971
sg514
I506
sg353
I345
sg808
I800
sg809
I801
sg810
I802
sg811
I803
sg812
I804
sg813
I805
sg814
I806
sg815
I807
sg816
I808
sg981
I973
sg826
I818
sg685
I677
sg446
I438
sg820
I812
sg821
I813
sg822
I814
sg823
I815
sg824
I816
sg825
I817
sg628
I620
sg827
I819
sg679
I671
sg829
I821
sg830
I822
sg831
I823
sg832
I824
sg88
I80
sg834
I826
sg855
I847
sg835
I827
sg836
I828
sg837
I829
sg839
I831
sg840
I832
sg841
I833
sg842
I834
sg843
I835
sg845
I837
sg70
I62
sg847
I839
sg848
I840
sg849
I841
sg850
I842
sg851
I843
sg852
I844
sg347
I339
sg854
I846
sg119
I111
sg856
I848
sg857
I849
sg858
I850
sg22
I14
sg165
I157
sg861
I853
sg862
I854
sg863
I855
sg864
I856
sg865
I857
sg180
I172
sg867
I859
sg868
I860
sg992
I984
sg870
I862
sg871
I863
sg872
I864
sg873
I865
sg653
I645
sg875
I867
sg232
I224
sg994
I986
sg877
I869
sg330
I322
sg879
I871
sg257
I249
sg881
I873
sg882
I874
sg270
I262
sg884
I876
sg885
I877
sg790
I782
sg886
I878
sg887
I879
sg888
I880
sg125
I117
sg890
I882
sg891
I883
sg892
I884
sg893
I885
sg894
I886
sg630
I622
sg713
I705
sg896
I888
sg897
I889
sg898
I890
sg899
I891
sg998
I990
sg901
I893
sg902
I894
sg903
I895
sg999
I991
sg904
I896
sg905
I897
sg906
I898
sg907
I899
sg908
I900
sg104
I96
sg818
I810
sg407
I399
sg912
I904
sg913
I905
sg419
I411
sg1001
I993
sg427
I419
sg917
I909
sg918
I910
sg919
I911
sg920
I912
sg467
I459
sg922
I914
sg595
I587
sg435
I427
sg923
I915
sg684
I676
sg926
I918
sg927
I919
sg687
I679
sg928
I920
sg1006
I998
sg846
I838
sg442
I434
sg931
I923
sg519
I511
sg932
I924
sg935
I927
sg936
I928
sg937
I929
sg938
I930
sg939
I931
sg166
I158
sg941
I933
sg942
I934
sg943
I935
sg225
I217
sg944
I936
sg945
I937
sg946
I938
sg947
I939
sg11
I3
sg949
I941
sg950
I942
sg643
I635
sg952
I944
sg649
I641
sg954
I946
sg828
I820
sg669
I661
sg957
I949
sg678
I670
sg959
I951
sg960
I952
sg819
I811
sg961
I953
sg974
I966
sg963
I955
sg964
I956
sg686
I678
sg582
I574
sg966
I958
sg484
I476
sg968
I960
sg969
I961
sg970
I962
sg594
I586
sg767
I759
sg973
I965
sg331
I323
sg505
I497
sg976
I968
sg977
I969
sg978
I970
sg424
I416
sg980
I972
sg817
I809
sg982
I974
sg983
I975
sg984
I976
sg985
I977
sg986
I978
sg987
I979
sg948
I940
sg989
I981
sg990
I982
sg991
I983
sg869
I861
sg477
I469
sg853
I845
sg995
I987
sg996
I988
sg997
I989
sg900
I892
sg671
I663
sg1000
I992
sg915
I907
sg1002
I994
sg1003
I995
sg1004
I996
sg1005
I997
sg405
I397
sg241
I233
sg951
I943
sg1010
I1002
sg1011
I1003
sg1012
I1004
sg177
I169
sg1014
I1006
sg838
I830
sg1016
I1008
sg1009
I1001
sg1018
I1010
ssS'idx'
p1025
I1011
sb.